(dp1
S'session'
p2
(dp3
S'user_id'
p4
ccopy_reg
_reconstructor
p5
(cbson.objectid
ObjectId
p6
c__builtin__
object
p7
NtRp8
S'R\x07\x91\xce\xe9\xd5z\x1c\xa3=e\xa5'
p9
bsS'_accessed_time'
p10
F1376239807.1521029
sS'user_roles'
p11
S'user'
p12
sS'_creation_time'
p13
F1376239530.9356041
ss.