(dp1
S'session'
p2
(dp3
S'_accessed_time'
p4
F1376486538.270772
sS'user_id'
p5
ccopy_reg
_reconstructor
p6
(cbson.objectid
ObjectId
p7
c__builtin__
object
p8
NtRp9
S'R\x07\x91\xce\xe9\xd5z\x1c\xa3=e\xa5'
p10
bsS'user_roles'
p11
S'user'
p12
sS'_creation_time'
p13
F1376486281.1823621
ss.